target datalayout = "e-m:e-p270:32:32-p271:32:32-p272:64:64-i64:64-i128:128-f80:128-n8:16:32:64-S128"
target triple = "x86_64-pc-linux-gnu"

%struct.listpackEntry = type { ptr, i32, i64 }
%struct.client = type { i64, i64, ptr, i8, i8, i8, i8, i32, ptr, ptr, ptr, ptr, ptr, i64, i64, i32, ptr, i32, i32, ptr, i64, ptr, ptr, ptr, ptr, ptr, i32, i32, i64, ptr, i64, ptr, i64, i64, i64, i32, ptr, i64, i64, i32, i32, i32, i32, i64, i64, ptr, i64, i64, i64, i64, i64, i64, i64, i64, [41 x i8], i32, ptr, i32, i32, i64, %struct.multiState, %struct.blockingState, i64, ptr, ptr, ptr, ptr, ptr, ptr, ptr, ptr, ptr, ptr, ptr, ptr, ptr, ptr, i64, ptr, i64, i32, ptr, ptr, ptr, i64, %struct.listNode, i64, i64, i32, i64, ptr }
%struct.multiState = type { ptr, i32, i32, i32, i64, i32 }
%struct.blockingState = type { i32, i64, i32, ptr, i32, i32, i64, ptr, ptr, i64 }
%struct.listNode = type { ptr, ptr, ptr }

; Function Attrs: nounwind uwtable
define dso_local double @zzlStrtod(ptr noundef %0, i32 noundef %1) #0 {
  %3 = alloca ptr, align 8
  %4 = alloca i32, align 4
  %5 = alloca [128 x i8], align 16
  store ptr %0, ptr %3, align 8, !tbaa !11
  store i32 %1, ptr %4, align 4, !tbaa !5
  call void @llvm.lifetime.start.p0(i64 128, ptr %5) #12
  %6 = load i32, ptr %4, align 4, !tbaa !5
  %7 = zext i32 %6 to i64
  %8 = icmp ugt i64 %7, 127
  br i1 %8, label %9, label %10

9:                                                ; preds = %2
  store i32 127, ptr %4, align 4, !tbaa !5
  br label %10

10:                                               ; preds = %9, %2
  %11 = getelementptr inbounds [128 x i8], ptr %5, i64 0, i64 0
  %12 = load ptr, ptr %3, align 8, !tbaa !11
  %13 = load i32, ptr %4, align 4, !tbaa !5
  %14 = zext i32 %13 to i64
  call void @llvm.memcpy.p0.p0.i64(ptr align 16 %11, ptr align 1 %12, i64 %14, i1 false)
  %15 = load i32, ptr %4, align 4, !tbaa !5
  %16 = zext i32 %15 to i64
  %17 = getelementptr inbounds nuw [128 x i8], ptr %5, i64 0, i64 %16
  store i8 0, ptr %17, align 1, !tbaa !86
  %18 = getelementptr inbounds [128 x i8], ptr %5, i64 0, i64 0
  %19 = call double @fast_float_strtod(ptr noundef %18, ptr noundef null)
  call void @llvm.lifetime.end.p0(i64 128, ptr %5) #12
  ret double %19
}

; Function Attrs: nounwind uwtable
define internal void @zrandmemberReplyWithListpack(ptr noundef %0, i32 noundef %1, ptr noundef %2, ptr noundef %3) #0 {
  %5 = alloca ptr, align 8
  %6 = alloca i32, align 4
  %7 = alloca ptr, align 8
  %8 = alloca ptr, align 8
  %9 = alloca i64, align 8
  store ptr %0, ptr %5, align 8, !tbaa !150
  store i32 %1, ptr %6, align 4, !tbaa !5
  store ptr %2, ptr %7, align 8, !tbaa !45
  store ptr %3, ptr %8, align 8, !tbaa !45
  call void @llvm.lifetime.start.p0(i64 8, ptr %9) #12
  store i64 0, ptr %9, align 8, !tbaa !31
  br label %10

10:                                               ; preds = %86, %4
  %11 = load i64, ptr %9, align 8, !tbaa !31
  %12 = load i32, ptr %6, align 4, !tbaa !5
  %13 = zext i32 %12 to i64
  %14 = icmp ult i64 %11, %13
  br i1 %14, label %16, label %15

15:                                               ; preds = %10
  call void @llvm.lifetime.end.p0(i64 8, ptr %9) #12
  br label %89

16:                                               ; preds = %10
  %17 = load ptr, ptr %8, align 8, !tbaa !45
  %18 = icmp ne ptr %17, null
  br i1 %18, label %19, label %26

19:                                               ; preds = %16
  %20 = load ptr, ptr %5, align 8, !tbaa !150
  %21 = getelementptr inbounds nuw %struct.client, ptr %20, i32 0, i32 7
  %22 = load i32, ptr %21, align 4, !tbaa !205
  %23 = icmp sgt i32 %22, 2
  br i1 %23, label %24, label %26

24:                                               ; preds = %19
  %25 = load ptr, ptr %5, align 8, !tbaa !150
  call void @addReplyArrayLen(ptr noundef %25, i64 noundef 2)
  br label %26

26:                                               ; preds = %24, %19, %16
  %27 = load ptr, ptr %7, align 8, !tbaa !45
  %28 = load i64, ptr %9, align 8, !tbaa !31
  %29 = getelementptr inbounds nuw %struct.listpackEntry, ptr %27, i64 %28
  %30 = getelementptr inbounds nuw %struct.listpackEntry, ptr %29, i32 0, i32 0
  %31 = load ptr, ptr %30, align 8, !tbaa !146
  %32 = icmp ne ptr %31, null
  br i1 %32, label %33, label %46

33:                                               ; preds = %26
  %34 = load ptr, ptr %5, align 8, !tbaa !150
  %35 = load ptr, ptr %7, align 8, !tbaa !45
  %36 = load i64, ptr %9, align 8, !tbaa !31
  %37 = getelementptr inbounds nuw %struct.listpackEntry, ptr %35, i64 %36
  %38 = getelementptr inbounds nuw %struct.listpackEntry, ptr %37, i32 0, i32 0
  %39 = load ptr, ptr %38, align 8, !tbaa !146
  %40 = load ptr, ptr %7, align 8, !tbaa !45
  %41 = load i64, ptr %9, align 8, !tbaa !31
  %42 = getelementptr inbounds nuw %struct.listpackEntry, ptr %40, i64 %41
  %43 = getelementptr inbounds nuw %struct.listpackEntry, ptr %42, i32 0, i32 1
  %44 = load i32, ptr %43, align 8, !tbaa !148
  %45 = zext i32 %44 to i64
  call void @addReplyBulkCBuffer(ptr noundef %34, ptr noundef %39, i64 noundef %45)
  br label %53

46:                                               ; preds = %26
  %47 = load ptr, ptr %5, align 8, !tbaa !150
  %48 = load ptr, ptr %7, align 8, !tbaa !45
  %49 = load i64, ptr %9, align 8, !tbaa !31
  %50 = getelementptr inbounds nuw %struct.listpackEntry, ptr %48, i64 %49
  %51 = getelementptr inbounds nuw %struct.listpackEntry, ptr %50, i32 0, i32 2
  %52 = load i64, ptr %51, align 8, !tbaa !149
  call void @addReplyBulkLongLong(ptr noundef %47, i64 noundef %52)
  br label %53

53:                                               ; preds = %46, %33
  %54 = load ptr, ptr %8, align 8, !tbaa !45
  %55 = icmp ne ptr %54, null
  br i1 %55, label %56, label %85

56:                                               ; preds = %53
  %57 = load ptr, ptr %8, align 8, !tbaa !45
  %58 = load i64, ptr %9, align 8, !tbaa !31
  %59 = getelementptr inbounds nuw %struct.listpackEntry, ptr %57, i64 %58
  %60 = getelementptr inbounds nuw %struct.listpackEntry, ptr %59, i32 0, i32 0
  %61 = load ptr, ptr %60, align 8, !tbaa !146
  %62 = icmp ne ptr %61, null
  br i1 %62, label %63, label %76

63:                                               ; preds = %56
  %64 = load ptr, ptr %5, align 8, !tbaa !150
  %65 = load ptr, ptr %8, align 8, !tbaa !45
  %66 = load i64, ptr %9, align 8, !tbaa !31
  %67 = getelementptr inbounds nuw %struct.listpackEntry, ptr %65, i64 %66
  %68 = getelementptr inbounds nuw %struct.listpackEntry, ptr %67, i32 0, i32 0
  %69 = load ptr, ptr %68, align 8, !tbaa !146
  %70 = load ptr, ptr %8, align 8, !tbaa !45
  %71 = load i64, ptr %9, align 8, !tbaa !31
  %72 = getelementptr inbounds nuw %struct.listpackEntry, ptr %70, i64 %71
  %73 = getelementptr inbounds nuw %struct.listpackEntry, ptr %72, i32 0, i32 1
  %74 = load i32, ptr %73, align 8, !tbaa !148
  %75 = call double @zzlStrtod(ptr noundef %69, i32 noundef %74)
  call void @addReplyDouble(ptr noundef %64, double noundef %75)
  br label %84

76:                                               ; preds = %56
  %77 = load ptr, ptr %5, align 8, !tbaa !150
  %78 = load ptr, ptr %8, align 8, !tbaa !45
  %79 = load i64, ptr %9, align 8, !tbaa !31
  %80 = getelementptr inbounds nuw %struct.listpackEntry, ptr %78, i64 %79
  %81 = getelementptr inbounds nuw %struct.listpackEntry, ptr %80, i32 0, i32 2
  %82 = load i64, ptr %81, align 8, !tbaa !149
  %83 = sitofp i64 %82 to double
  call void @addReplyDouble(ptr noundef %77, double noundef %83)
  br label %84

84:                                               ; preds = %76, %63
  br label %85

85:                                               ; preds = %84, %53
  br label %86

86:                                               ; preds = %85
  %87 = load i64, ptr %9, align 8, !tbaa !31
  %88 = add i64 %87, 1
  store i64 %88, ptr %9, align 8, !tbaa !31
  br label %10, !llvm.loop !248

89:                                               ; preds = %15
  ret void
}