; Function Attrs: nounwind uwtable
define internal fastcc void @zrandmemberReplyWithListpack(ptr noundef %0, i32 noundef %1, ptr noundef readonly captures(none) %2, ptr noundef readonly captures(address_is_null) %3) unnamed_addr #0 {
  %5 = alloca [128 x i8], align 16
  %6 = zext i32 %1 to i64
  %.not32 = icmp eq i32 %1, 0
  br i1 %.not32, label %._crit_edge, label %.lr.ph

.lr.ph:                                           ; preds = %4
  %.not = icmp eq ptr %3, null
  %7 = getelementptr inbounds nuw i8, ptr %0, i64 28
  br i1 %.not, label %.lr.ph.split.us, label %.lr.ph.split

.lr.ph.split.us:                                  ; preds = %.lr.ph, %17
  %.031.us = phi i64 [ %18, %17 ], [ 0, %.lr.ph ]
  %8 = getelementptr inbounds nuw %struct.listpackEntry, ptr %2, i64 %.031.us
  %9 = load ptr, ptr %8, align 8, !tbaa !132
  %.not29.us = icmp eq ptr %9, null
  br i1 %.not29.us, label %14, label %10

10:                                               ; preds = %.lr.ph.split.us
  %11 = getelementptr inbounds nuw i8, ptr %8, i64 8
  %12 = load i32, ptr %11, align 8, !tbaa !134
  %13 = zext i32 %12 to i64
  tail call void @addReplyBulkCBuffer(ptr noundef %0, ptr noundef nonnull %9, i64 noundef %13) #18
  br label %17

14:                                               ; preds = %.lr.ph.split.us
  %15 = getelementptr inbounds nuw i8, ptr %8, i64 16
  %16 = load i64, ptr %15, align 8, !tbaa !135
  tail call void @addReplyBulkLongLong(ptr noundef %0, i64 noundef %16) #18
  br label %17

17:                                               ; preds = %14, %10
  %18 = add nuw nsw i64 %.031.us, 1
  %exitcond34.not = icmp eq i64 %18, %6
  br i1 %exitcond34.not, label %._crit_edge, label %.lr.ph.split.us, !llvm.loop !226

._crit_edge:                                      ; preds = %45, %17, %4
  ret void

.lr.ph.split:                                     ; preds = %.lr.ph, %45
  %.031 = phi i64 [ %46, %45 ], [ 0, %.lr.ph ]
  %19 = load i32, ptr %7, align 4, !tbaa !185
  %20 = icmp sgt i32 %19, 2
  br i1 %20, label %21, label %22

21:                                               ; preds = %.lr.ph.split
  call void @addReplyArrayLen(ptr noundef nonnull %0, i64 noundef 2) #18
  br label %22

22:                                               ; preds = %21, %.lr.ph.split
  %23 = getelementptr inbounds nuw %struct.listpackEntry, ptr %2, i64 %.031
  %24 = load ptr, ptr %23, align 8, !tbaa !132
  %.not29 = icmp eq ptr %24, null
  br i1 %.not29, label %29, label %25

25:                                               ; preds = %22
  %26 = getelementptr inbounds nuw i8, ptr %23, i64 8
  %27 = load i32, ptr %26, align 8, !tbaa !134
  %28 = zext i32 %27 to i64
  call void @addReplyBulkCBuffer(ptr noundef nonnull %0, ptr noundef nonnull %24, i64 noundef %28) #18
  br label %32

29:                                               ; preds = %22
  %30 = getelementptr inbounds nuw i8, ptr %23, i64 16
  %31 = load i64, ptr %30, align 8, !tbaa !135
  call void @addReplyBulkLongLong(ptr noundef nonnull %0, i64 noundef %31) #18
  br label %32

32:                                               ; preds = %29, %25
  %33 = getelementptr inbounds nuw %struct.listpackEntry, ptr %3, i64 %.031
  %34 = load ptr, ptr %33, align 8, !tbaa !132
  %.not30 = icmp eq ptr %34, null
  br i1 %.not30, label %41, label %35

35:                                               ; preds = %32
  %36 = getelementptr inbounds nuw i8, ptr %33, i64 8
  %37 = load i32, ptr %36, align 8, !tbaa !134
  call void @llvm.lifetime.start.p0(i64 128, ptr nonnull %5) #18
  %spec.store.select.i = call i32 @llvm.umin.i32(i32 %37, i32 127)
  %38 = zext nneg i32 %spec.store.select.i to i64
  call void @llvm.memcpy.p0.p0.i64(ptr nonnull align 16 %5, ptr nonnull readonly align 1 %34, i64 %38, i1 false)
  %39 = getelementptr inbounds nuw [128 x i8], ptr %5, i64 0, i64 %38
  store i8 0, ptr %39, align 1, !tbaa !77
  %40 = call double @fast_float_strtod(ptr noundef nonnull %5, ptr noundef null) #18
  call void @llvm.lifetime.end.p0(i64 128, ptr nonnull %5) #18
  br label %45

41:                                               ; preds = %32
  %42 = getelementptr inbounds nuw i8, ptr %33, i64 16
  %43 = load i64, ptr %42, align 8, !tbaa !135
  %44 = sitofp i64 %43 to double
  br label %45

45:                                               ; preds = %41, %35
  %.sink = phi double [ %44, %41 ], [ %40, %35 ]
  call void @addReplyDouble(ptr noundef nonnull %0, double noundef %.sink) #18
  %46 = add nuw nsw i64 %.031, 1
  %exitcond.not = icmp eq i64 %46, %6
  br i1 %exitcond.not, label %._crit_edge, label %.lr.ph.split, !llvm.loop !226
}